; Function Attrs: nounwind uwtable
define range(i32 -30, 1) i32 @CVodeQuadSStolerances(ptr noundef captures(address_is_null) %0, double noundef %1, double noundef %2) local_unnamed_addr #0 {
  %4 = icmp eq ptr %0, null
  br i1 %4, label %5, label %6

5:                                                ; preds = %3
  tail call void (ptr, i32, ptr, ptr, ptr, ...) @cvProcessError(ptr noundef null, i32 noundef -21, ptr noundef nonnull @.str, ptr noundef nonnull @.str.21, ptr noundef nonnull @.str.6)
  br label %21

6:                                                ; preds = %3
  %7 = getelementptr inbounds nuw i8, ptr %0, i64 1796
  %8 = load i32, ptr %7, align 4, !tbaa !126
  %9 = icmp eq i32 %8, 0
  br i1 %9, label %10, label %11

10:                                               ; preds = %6
  tail call void (ptr, i32, ptr, ptr, ptr, ...) @cvProcessError(ptr noundef nonnull %0, i32 noundef -30, ptr noundef nonnull @.str, ptr noundef nonnull @.str.21, ptr noundef nonnull @.str.20)
  br label %21

11:                                               ; preds = %6
  %12 = fcmp olt double %1, 0.000000e+00
  br i1 %12, label %13, label %14

13:                                               ; preds = %11
  tail call void (ptr, i32, ptr, ptr, ptr, ...) @cvProcessError(ptr noundef nonnull %0, i32 noundef -22, ptr noundef nonnull @.str, ptr noundef nonnull @.str.21, ptr noundef nonnull @.str.22)
  br label %21

14:                                               ; preds = %11
  %15 = fcmp olt double %2, 0.000000e+00
  br i1 %15, label %16, label %17

16:                                               ; preds = %14
  tail call void (ptr, i32, ptr, ptr, ptr, ...) @cvProcessError(ptr noundef nonnull %0, i32 noundef -22, ptr noundef nonnull @.str, ptr noundef nonnull @.str.21, ptr noundef nonnull @.str.23)
  br label %21

17:                                               ; preds = %14
  %18 = getelementptr inbounds nuw i8, ptr %0, i64 108
  store i32 1, ptr %18, align 4, !tbaa !127
  %19 = getelementptr inbounds nuw i8, ptr %0, i64 112
  store double %1, ptr %19, align 8, !tbaa !128
  %20 = getelementptr inbounds nuw i8, ptr %0, i64 120
  store double %2, ptr %20, align 8, !tbaa !129
  br label %21

21:                                               ; preds = %17, %16, %13, %10, %5
  %.0 = phi i32 [ -21, %5 ], [ -30, %10 ], [ -22, %13 ], [ -22, %16 ], [ 0, %17 ]
  ret i32 %.0
}